; Function Attrs: mustprogress uwtable
define noundef i64 @_ZNK6google8protobuf2io18StringOutputStream9ByteCountEv(ptr nocapture noundef nonnull readonly align 8 dereferenceable(16) %0) unnamed_addr #5 align 2 personality ptr @__gxx_personality_v0 {
  %2 = alloca %"class.google::protobuf::internal::LogMessage", align 8
  %3 = alloca %"class.google::protobuf::internal::LogFinisher", align 1
  %4 = getelementptr inbounds i8, ptr %0, i64 8
  %5 = load ptr, ptr %4, align 8
  %.not = icmp eq ptr %5, null
  br i1 %.not, label %6, label %.critedge

6:                                                ; preds = %1
  call void @_ZN6google8protobuf8internal10LogMessageC1ENS0_8LogLevelEPKci(ptr noundef nonnull align 8 dereferenceable(56) %2, i32 noundef 3, ptr noundef nonnull @.str, i32 noundef 176)
  %7 = invoke noundef nonnull align 8 dereferenceable(56) ptr @_ZN6google8protobuf8internal10LogMessagelsEPKc(ptr noundef nonnull align 8 dereferenceable(56) %2, ptr noundef nonnull @.str.5)
          to label %8 unwind label %12

8:                                                ; preds = %6
  invoke void @_ZN6google8protobuf8internal11LogFinisheraSERNS1_10LogMessageE(ptr noundef nonnull align 1 dereferenceable(1) %3, ptr noundef nonnull align 8 dereferenceable(56) %7)
          to label %9 unwind label %12

9:                                                ; preds = %8
  call void @_ZN6google8protobuf8internal10LogMessageD1Ev(ptr noundef nonnull align 8 dereferenceable(56) %2) #16
  %.pre = load ptr, ptr %4, align 8
  br label %.critedge

.critedge:                                        ; preds = %1, %9
  %10 = phi ptr [ %5, %1 ], [ %.pre, %9 ]
  %11 = call noundef i64 @_ZNKSt7__cxx1112basic_stringIcSt11char_traitsIcESaIcEE4sizeEv(ptr noundef nonnull align 8 dereferenceable(32) %10) #16
  ret i64 %11

12:                                               ; preds = %8, %6
  %13 = landingpad { ptr, i32 }
          cleanup
  call void @_ZN6google8protobuf8internal10LogMessageD1Ev(ptr noundef nonnull align 8 dereferenceable(56) %2) #16
  resume { ptr, i32 } %13
}